; Function Attrs: mustprogress uwtable
define void @_ZN7rocksdb24CompressedSecondaryCache11SetCapacityEm(ptr noalias nocapture writeonly sret(%"class.rocksdb::Status") align 8 %agg.result, ptr noundef nonnull align 8 dereferenceable(217) %this, i64 noundef %capacity) unnamed_addr #0 align 2 personality ptr @__gxx_personality_v0 {
entry:
  %capacity_mutex_ = getelementptr inbounds i8, ptr %this, i64 160
  tail call void @_ZN7rocksdb4port5Mutex4LockEv(ptr noundef nonnull align 8 dereferenceable(40) %capacity_mutex_)
  %capacity2 = getelementptr inbounds i8, ptr %this, i64 56
  store i64 %capacity, ptr %capacity2, align 8
  %cache_ = getelementptr inbounds i8, ptr %this, i64 32
  %0 = load ptr, ptr %cache_, align 8
  %vtable = load ptr, ptr %0, align 8
  %vfn = getelementptr inbounds i8, ptr %vtable, i64 88
  %1 = load ptr, ptr %vfn, align 8
  invoke void %1(ptr noundef nonnull align 8 dereferenceable(56) %0, i64 noundef %capacity)
          to label %invoke.cont3 unwind label %lpad

invoke.cont3:                                     ; preds = %entry
  %cmp = icmp eq i64 %capacity, 0
  %disable_cache_ = getelementptr inbounds i8, ptr %this, i64 216
  %frombool = zext i1 %cmp to i8
  store i8 %frombool, ptr %disable_cache_, align 8
  %state_.i.i = getelementptr inbounds i8, ptr %agg.result, i64 8
  store ptr null, ptr %state_.i.i, align 8, !alias.scope !47
  tail call void @llvm.memset.p0.i64(ptr noundef nonnull align 8 dereferenceable(6) %agg.result, i8 0, i64 6, i1 false), !alias.scope !47
  invoke void @_ZN7rocksdb4port5Mutex6UnlockEv(ptr noundef nonnull align 8 dereferenceable(40) %capacity_mutex_)
          to label %_ZN7rocksdb9MutexLockD2Ev.exit unwind label %terminate.lpad.i

terminate.lpad.i:                                 ; preds = %invoke.cont3
  %2 = landingpad { ptr, i32 }
          catch ptr null
  %3 = extractvalue { ptr, i32 } %2, 0
  tail call void @__clang_call_terminate(ptr %3) #22
  unreachable

_ZN7rocksdb9MutexLockD2Ev.exit:                   ; preds = %invoke.cont3
  ret void

lpad:                                             ; preds = %entry
  %4 = landingpad { ptr, i32 }
          cleanup
  invoke void @_ZN7rocksdb4port5Mutex6UnlockEv(ptr noundef nonnull align 8 dereferenceable(40) %capacity_mutex_)
          to label %_ZN7rocksdb9MutexLockD2Ev.exit4 unwind label %terminate.lpad.i3

terminate.lpad.i3:                                ; preds = %lpad
  %5 = landingpad { ptr, i32 }
          catch ptr null
  %6 = extractvalue { ptr, i32 } %5, 0
  tail call void @__clang_call_terminate(ptr %6) #22
  unreachable

_ZN7rocksdb9MutexLockD2Ev.exit4:                  ; preds = %lpad
  resume { ptr, i32 } %4
}